; Function Attrs: mustprogress uwtable
define noundef signext i8 @_ZN6icu_7513MessageFormat14argNameMatchesEiRKNS_13UnicodeStringEi(ptr noundef nonnull align 8 dereferenceable(816) %this, i32 noundef %partIndex, ptr noundef nonnull align 8 dereferenceable(64) %argName, i32 noundef %argNumber) local_unnamed_addr #1 align 2 {
entry:
  %parts.i = getelementptr inbounds i8, ptr %this, i64 640
  %0 = load ptr, ptr %parts.i, align 8
  %idxprom.i = sext i32 %partIndex to i64
  %arrayidx.i = getelementptr inbounds %"class.icu_75::MessagePattern::Part", ptr %0, i64 %idxprom.i
  %1 = load i32, ptr %arrayidx.i, align 4
  %cmp = icmp eq i32 %1, 8
  br i1 %cmp, label %cond.true, label %cond.false

cond.true:                                        ; preds = %entry
  %fUnion.i.i.i.i = getelementptr inbounds i8, ptr %argName, i64 8
  %2 = load i16, ptr %fUnion.i.i.i.i, align 8
  %conv2.i10.i.i.i = and i16 %2, 1
  %tobool.not.i.i.i = icmp eq i16 %conv2.i10.i.i.i, 0
  br i1 %tobool.not.i.i.i, label %if.else.i.i.i, label %if.then.i.i.i

if.then.i.i.i:                                    ; preds = %cond.true
  %fUnion.i3.i.i.i = getelementptr inbounds i8, ptr %this, i64 576
  %3 = load i16, ptr %fUnion.i3.i.i.i, align 8
  %4 = trunc i16 %3 to i8
  %5 = and i8 %4, 1
  %conv.i.i.i = xor i8 %5, 1
  br label %_ZNK6icu_7514MessagePattern20partSubstringMatchesERKNS0_4PartERKNS_13UnicodeStringE.exit

if.else.i.i.i:                                    ; preds = %cond.true
  %msg.i = getelementptr inbounds i8, ptr %this, i64 568
  %length.i = getelementptr inbounds i8, ptr %arrayidx.i, i64 8
  %6 = load i16, ptr %length.i, align 4
  %conv.i = zext i16 %6 to i32
  %index.i = getelementptr inbounds i8, ptr %arrayidx.i, i64 4
  %7 = load i32, ptr %index.i, align 4
  %cmp.i.i.i.i = icmp slt i16 %2, 0
  %fLength.i.i.i = getelementptr inbounds i8, ptr %argName, i64 12
  %8 = load i32, ptr %fLength.i.i.i, align 4
  %9 = ashr i16 %2, 5
  %shr.i.i.i.i = sext i16 %9 to i32
  %cond.i.i.i = select i1 %cmp.i.i.i.i, i32 %8, i32 %shr.i.i.i.i
  %spec.select.i.i.i = tail call i32 @llvm.smin.i32(i32 %cond.i.i.i, i32 0)
  %cmp5.i.i.i.i = icmp slt i32 %cond.i.i.i, 0
  %sub.i.i.i.i = sub nsw i32 %cond.i.i.i, %spec.select.i.i.i
  %spec.select9.i.i.i = tail call i32 @llvm.smin.i32(i32 %sub.i.i.i.i, i32 %cond.i.i.i)
  %srcLength.addr.0.i.i.i = select i1 %cmp5.i.i.i.i, i32 0, i32 %spec.select9.i.i.i
  %10 = and i16 %2, 2
  %tobool.not.i.i.i.i = icmp eq i16 %10, 0
  %fBuffer.i.i.i.i = getelementptr inbounds i8, ptr %argName, i64 10
  %fArray.i.i.i.i = getelementptr inbounds i8, ptr %argName, i64 24
  %11 = load ptr, ptr %fArray.i.i.i.i, align 8
  %cond.i.i.i.i = select i1 %tobool.not.i.i.i.i, ptr %11, ptr %fBuffer.i.i.i.i
  %call5.i.i.i = tail call noundef signext i8 @_ZNK6icu_7513UnicodeString9doCompareEiiPKDsii(ptr noundef nonnull align 8 dereferenceable(64) %msg.i, i32 noundef %7, i32 noundef %conv.i, ptr noundef %cond.i.i.i.i, i32 noundef %spec.select.i.i.i, i32 noundef %srcLength.addr.0.i.i.i)
  br label %_ZNK6icu_7514MessagePattern20partSubstringMatchesERKNS0_4PartERKNS_13UnicodeStringE.exit

_ZNK6icu_7514MessagePattern20partSubstringMatchesERKNS0_4PartERKNS_13UnicodeStringE.exit: ; preds = %if.then.i.i.i, %if.else.i.i.i
  %retval.0.i.i.i = phi i8 [ %conv.i.i.i, %if.then.i.i.i ], [ %call5.i.i.i, %if.else.i.i.i ]
  %cmp.i = icmp eq i8 %retval.0.i.i.i, 0
  br label %cond.end

cond.false:                                       ; preds = %entry
  %value.i = getelementptr inbounds i8, ptr %arrayidx.i, i64 10
  %12 = load i16, ptr %value.i, align 2
  %conv.i3 = sext i16 %12 to i32
  %cmp6 = icmp eq i32 %conv.i3, %argNumber
  br label %cond.end

cond.end:                                         ; preds = %cond.false, %_ZNK6icu_7514MessagePattern20partSubstringMatchesERKNS0_4PartERKNS_13UnicodeStringE.exit
  %cond.in = phi i1 [ %cmp.i, %_ZNK6icu_7514MessagePattern20partSubstringMatchesERKNS0_4PartERKNS_13UnicodeStringE.exit ], [ %cmp6, %cond.false ]
  %cond = zext i1 %cond.in to i8
  ret i8 %cond
}